	.file	"VirtualDestructor.cpp"
	.text
	.section	.rodata
	.type	_ZStL19piecewise_construct, @object
	.size	_ZStL19piecewise_construct, 1
_ZStL19piecewise_construct:
	.zero	1
	.local	_ZStL8__ioinit
	.comm	_ZStL8__ioinit,1,1
.LC0:
	.string	"Base()\n"
	.section	.text._ZN4BaseC2Ev,"axG",@progbits,_ZN4BaseC5Ev,comdat
	.align 2
	.weak	_ZN4BaseC2Ev
	.type	_ZN4BaseC2Ev, @function
_ZN4BaseC2Ev:
.LFB1494:
	.cfi_startproc
	pushq	%rbp
	.cfi_def_cfa_offset 16
	.cfi_offset 6, -16
	movq	%rsp, %rbp
	.cfi_def_cfa_register 6
	subq	$16, %rsp
	movq	%rdi, -8(%rbp)
	leaq	16+_ZTV4Base(%rip), %rdx
	movq	-8(%rbp), %rax
	movq	%rdx, (%rax)
	leaq	.LC0(%rip), %rsi
	leaq	_ZSt4cout(%rip), %rdi
	call	_ZStlsISt11char_traitsIcEERSt13basic_ostreamIcT_ES5_PKc@PLT
	nop
	leave
	.cfi_def_cfa 7, 8
	ret
	.cfi_endproc
.LFE1494:
	.size	_ZN4BaseC2Ev, .-_ZN4BaseC2Ev
	.weak	_ZN4BaseC1Ev
	.set	_ZN4BaseC1Ev,_ZN4BaseC2Ev
	.section	.rodata
.LC1:
	.string	"~Base()\n"
	.section	.text._ZN4BaseD2Ev,"axG",@progbits,_ZN4BaseD5Ev,comdat
	.align 2
	.weak	_ZN4BaseD2Ev
	.type	_ZN4BaseD2Ev, @function
_ZN4BaseD2Ev:
.LFB1497:
	.cfi_startproc
	.cfi_personality 0x9b,DW.ref.__gxx_personality_v0
	.cfi_lsda 0x1b,.LLSDA1497
	pushq	%rbp
	.cfi_def_cfa_offset 16
	.cfi_offset 6, -16
	movq	%rsp, %rbp
	.cfi_def_cfa_register 6
	subq	$16, %rsp
	movq	%rdi, -8(%rbp)
	leaq	16+_ZTV4Base(%rip), %rdx
	movq	-8(%rbp), %rax
	movq	%rdx, (%rax)
	leaq	.LC1(%rip), %rsi
	leaq	_ZSt4cout(%rip), %rdi
	call	_ZStlsISt11char_traitsIcEERSt13basic_ostreamIcT_ES5_PKc@PLT
	nop
	leave
	.cfi_def_cfa 7, 8
	ret
	.cfi_endproc
.LFE1497:
	.globl	__gxx_personality_v0
	.section	.gcc_except_table._ZN4BaseD2Ev,"aG",@progbits,_ZN4BaseD5Ev,comdat
.LLSDA1497:
	.byte	0xff
	.byte	0xff
	.byte	0x1
	.uleb128 .LLSDACSE1497-.LLSDACSB1497
.LLSDACSB1497:
.LLSDACSE1497:
	.section	.text._ZN4BaseD2Ev,"axG",@progbits,_ZN4BaseD5Ev,comdat
	.size	_ZN4BaseD2Ev, .-_ZN4BaseD2Ev
	.weak	_ZN4BaseD1Ev
	.set	_ZN4BaseD1Ev,_ZN4BaseD2Ev
	.section	.text._ZN4BaseD0Ev,"axG",@progbits,_ZN4BaseD5Ev,comdat
	.align 2
	.weak	_ZN4BaseD0Ev
	.type	_ZN4BaseD0Ev, @function
_ZN4BaseD0Ev:
.LFB1499:
	.cfi_startproc
	pushq	%rbp
	.cfi_def_cfa_offset 16
	.cfi_offset 6, -16
	movq	%rsp, %rbp
	.cfi_def_cfa_register 6
	subq	$16, %rsp
	movq	%rdi, -8(%rbp)
	movq	-8(%rbp), %rax
	movq	%rax, %rdi
	call	_ZN4BaseD1Ev
	movq	-8(%rbp), %rax
	movl	$8, %esi
	movq	%rax, %rdi
	call	_ZdlPvm@PLT
	leave
	.cfi_def_cfa 7, 8
	ret
	.cfi_endproc
.LFE1499:
	.size	_ZN4BaseD0Ev, .-_ZN4BaseD0Ev
	.section	.rodata
.LC2:
	.string	"Derived()\n"
	.section	.text._ZN7DerivedC2Ev,"axG",@progbits,_ZN7DerivedC5Ev,comdat
	.align 2
	.weak	_ZN7DerivedC2Ev
	.type	_ZN7DerivedC2Ev, @function
_ZN7DerivedC2Ev:
.LFB1501:
	.cfi_startproc
	.cfi_personality 0x9b,DW.ref.__gxx_personality_v0
	.cfi_lsda 0x1b,.LLSDA1501
	pushq	%rbp
	.cfi_def_cfa_offset 16
	.cfi_offset 6, -16
	movq	%rsp, %rbp
	.cfi_def_cfa_register 6
	pushq	%rbx
	subq	$24, %rsp
	.cfi_offset 3, -24
	movq	%rdi, -24(%rbp)
	movq	-24(%rbp), %rax
	movq	%rax, %rdi
.LEHB0:
	call	_ZN4BaseC2Ev
.LEHE0:
	leaq	16+_ZTV7Derived(%rip), %rdx
	movq	-24(%rbp), %rax
	movq	%rdx, (%rax)
	leaq	.LC2(%rip), %rsi
	leaq	_ZSt4cout(%rip), %rdi
.LEHB1:
	call	_ZStlsISt11char_traitsIcEERSt13basic_ostreamIcT_ES5_PKc@PLT
.LEHE1:
	jmp	.L7
.L6:
	movq	%rax, %rbx
	movq	-24(%rbp), %rax
	movq	%rax, %rdi
	call	_ZN4BaseD2Ev
	movq	%rbx, %rax
	movq	%rax, %rdi
.LEHB2:
	call	_Unwind_Resume@PLT
.LEHE2:
.L7:
	addq	$24, %rsp
	popq	%rbx
	popq	%rbp
	.cfi_def_cfa 7, 8
	ret
	.cfi_endproc
.LFE1501:
	.section	.gcc_except_table._ZN7DerivedC2Ev,"aG",@progbits,_ZN7DerivedC5Ev,comdat
.LLSDA1501:
	.byte	0xff
	.byte	0xff
	.byte	0x1
	.uleb128 .LLSDACSE1501-.LLSDACSB1501
.LLSDACSB1501:
	.uleb128 .LEHB0-.LFB1501
	.uleb128 .LEHE0-.LEHB0
	.uleb128 0
	.uleb128 0
	.uleb128 .LEHB1-.LFB1501
	.uleb128 .LEHE1-.LEHB1
	.uleb128 .L6-.LFB1501
	.uleb128 0
	.uleb128 .LEHB2-.LFB1501
	.uleb128 .LEHE2-.LEHB2
	.uleb128 0
	.uleb128 0
.LLSDACSE1501:
	.section	.text._ZN7DerivedC2Ev,"axG",@progbits,_ZN7DerivedC5Ev,comdat
	.size	_ZN7DerivedC2Ev, .-_ZN7DerivedC2Ev
	.weak	_ZN7DerivedC1Ev
	.set	_ZN7DerivedC1Ev,_ZN7DerivedC2Ev
	.section	.rodata
.LC3:
	.string	"~Derived()\n"
	.section	.text._ZN7DerivedD2Ev,"axG",@progbits,_ZN7DerivedD5Ev,comdat
	.align 2
	.weak	_ZN7DerivedD2Ev
	.type	_ZN7DerivedD2Ev, @function
_ZN7DerivedD2Ev:
.LFB1504:
	.cfi_startproc
	.cfi_personality 0x9b,DW.ref.__gxx_personality_v0
	.cfi_lsda 0x1b,.LLSDA1504
	pushq	%rbp
	.cfi_def_cfa_offset 16
	.cfi_offset 6, -16
	movq	%rsp, %rbp
	.cfi_def_cfa_register 6
	subq	$16, %rsp
	movq	%rdi, -8(%rbp)
	leaq	16+_ZTV7Derived(%rip), %rdx
	movq	-8(%rbp), %rax
	movq	%rdx, (%rax)
	leaq	.LC3(%rip), %rsi
	leaq	_ZSt4cout(%rip), %rdi
	call	_ZStlsISt11char_traitsIcEERSt13basic_ostreamIcT_ES5_PKc@PLT
	movq	-8(%rbp), %rax
	movq	%rax, %rdi
	call	_ZN4BaseD2Ev
	nop
	leave
	.cfi_def_cfa 7, 8
	ret
	.cfi_endproc
.LFE1504:
	.section	.gcc_except_table._ZN7DerivedD2Ev,"aG",@progbits,_ZN7DerivedD5Ev,comdat
.LLSDA1504:
	.byte	0xff
	.byte	0xff
	.byte	0x1
	.uleb128 .LLSDACSE1504-.LLSDACSB1504
.LLSDACSB1504:
.LLSDACSE1504:
	.section	.text._ZN7DerivedD2Ev,"axG",@progbits,_ZN7DerivedD5Ev,comdat
	.size	_ZN7DerivedD2Ev, .-_ZN7DerivedD2Ev
	.weak	_ZN7DerivedD1Ev
	.set	_ZN7DerivedD1Ev,_ZN7DerivedD2Ev
	.section	.text._ZN7DerivedD0Ev,"axG",@progbits,_ZN7DerivedD5Ev,comdat
	.align 2
	.weak	_ZN7DerivedD0Ev
	.type	_ZN7DerivedD0Ev, @function
_ZN7DerivedD0Ev:
.LFB1506:
	.cfi_startproc
	pushq	%rbp
	.cfi_def_cfa_offset 16
	.cfi_offset 6, -16
	movq	%rsp, %rbp
	.cfi_def_cfa_register 6
	subq	$16, %rsp
	movq	%rdi, -8(%rbp)
	movq	-8(%rbp), %rax
	movq	%rax, %rdi
	call	_ZN7DerivedD1Ev
	movq	-8(%rbp), %rax
	movl	$8, %esi
	movq	%rax, %rdi
	call	_ZdlPvm@PLT
	leave
	.cfi_def_cfa 7, 8
	ret
	.cfi_endproc
.LFE1506:
	.size	_ZN7DerivedD0Ev, .-_ZN7DerivedD0Ev
	.text
	.globl	main
	.type	main, @function
main:
.LFB1507:
	.cfi_startproc
	.cfi_personality 0x9b,DW.ref.__gxx_personality_v0
	.cfi_lsda 0x1b,.LLSDA1507
	pushq	%rbp
	.cfi_def_cfa_offset 16
	.cfi_offset 6, -16
	movq	%rsp, %rbp
	.cfi_def_cfa_register 6
	pushq	%r12
	pushq	%rbx
	subq	$32, %rsp
	.cfi_offset 12, -24
	.cfi_offset 3, -32
	movl	%edi, -36(%rbp)
	movq	%rsi, -48(%rbp)
	movl	$8, %edi
.LEHB3:
	call	_Znwm@PLT
.LEHE3:
	movq	%rax, %rbx
	movq	%rbx, %rdi
.LEHB4:
	call	_ZN7DerivedC1Ev
.LEHE4:
	movq	%rbx, -24(%rbp)
	cmpq	$0, -24(%rbp)
	je	.L11
	movq	-24(%rbp), %rax
	movq	(%rax), %rax
	addq	$8, %rax
	movq	(%rax), %rax
	movq	-24(%rbp), %rdx
	movq	%rdx, %rdi
	call	*%rax
.L11:
	movl	$0, %eax
	jmp	.L15
.L14:
	movq	%rax, %r12
	movl	$8, %esi
	movq	%rbx, %rdi
	call	_ZdlPvm@PLT
	movq	%r12, %rax
	movq	%rax, %rdi
.LEHB5:
	call	_Unwind_Resume@PLT
.LEHE5:
.L15:
	addq	$32, %rsp
	popq	%rbx
	popq	%r12
	popq	%rbp
	.cfi_def_cfa 7, 8
	ret
	.cfi_endproc
.LFE1507:
	.section	.gcc_except_table,"a",@progbits
.LLSDA1507:
	.byte	0xff
	.byte	0xff
	.byte	0x1
	.uleb128 .LLSDACSE1507-.LLSDACSB1507
.LLSDACSB1507:
	.uleb128 .LEHB3-.LFB1507
	.uleb128 .LEHE3-.LEHB3
	.uleb128 0
	.uleb128 0
	.uleb128 .LEHB4-.LFB1507
	.uleb128 .LEHE4-.LEHB4
	.uleb128 .L14-.LFB1507
	.uleb128 0
	.uleb128 .LEHB5-.LFB1507
	.uleb128 .LEHE5-.LEHB5
	.uleb128 0
	.uleb128 0
.LLSDACSE1507:
	.text
	.size	main, .-main
	.weak	_ZTV7Derived
	.section	.data.rel.ro.local._ZTV7Derived,"awG",@progbits,_ZTV7Derived,comdat
	.align 8
	.type	_ZTV7Derived, @object
	.size	_ZTV7Derived, 32
_ZTV7Derived:
	.quad	0
	.quad	_ZTI7Derived
	.quad	_ZN7DerivedD1Ev
	.quad	_ZN7DerivedD0Ev
	.weak	_ZTV4Base
	.section	.data.rel.ro.local._ZTV4Base,"awG",@progbits,_ZTV4Base,comdat
	.align 8
	.type	_ZTV4Base, @object
	.size	_ZTV4Base, 32
_ZTV4Base:
	.quad	0
	.quad	_ZTI4Base
	.quad	_ZN4BaseD1Ev
	.quad	_ZN4BaseD0Ev
	.weak	_ZTI7Derived
	.section	.data.rel.ro._ZTI7Derived,"awG",@progbits,_ZTI7Derived,comdat
	.align 8
	.type	_ZTI7Derived, @object
	.size	_ZTI7Derived, 24
_ZTI7Derived:
	.quad	_ZTVN10__cxxabiv120__si_class_type_infoE+16
	.quad	_ZTS7Derived
	.quad	_ZTI4Base
	.weak	_ZTS7Derived
	.section	.rodata._ZTS7Derived,"aG",@progbits,_ZTS7Derived,comdat
	.align 8
	.type	_ZTS7Derived, @object
	.size	_ZTS7Derived, 9
_ZTS7Derived:
	.string	"7Derived"
	.weak	_ZTI4Base
	.section	.data.rel.ro._ZTI4Base,"awG",@progbits,_ZTI4Base,comdat
	.align 8
	.type	_ZTI4Base, @object
	.size	_ZTI4Base, 16
_ZTI4Base:
	.quad	_ZTVN10__cxxabiv117__class_type_infoE+16
	.quad	_ZTS4Base
	.weak	_ZTS4Base
	.section	.rodata._ZTS4Base,"aG",@progbits,_ZTS4Base,comdat
	.type	_ZTS4Base, @object
	.size	_ZTS4Base, 6
_ZTS4Base:
	.string	"4Base"
	.text
	.type	_Z41__static_initialization_and_destruction_0ii, @function
_Z41__static_initialization_and_destruction_0ii:
.LFB1991:
	.cfi_startproc
	pushq	%rbp
	.cfi_def_cfa_offset 16
	.cfi_offset 6, -16
	movq	%rsp, %rbp
	.cfi_def_cfa_register 6
	subq	$16, %rsp
	movl	%edi, -4(%rbp)
	movl	%esi, -8(%rbp)
	cmpl	$1, -4(%rbp)
	jne	.L18
	cmpl	$65535, -8(%rbp)
	jne	.L18
	leaq	_ZStL8__ioinit(%rip), %rdi
	call	_ZNSt8ios_base4InitC1Ev@PLT
	leaq	__dso_handle(%rip), %rdx
	leaq	_ZStL8__ioinit(%rip), %rsi
	movq	_ZNSt8ios_base4InitD1Ev@GOTPCREL(%rip), %rax
	movq	%rax, %rdi
	call	__cxa_atexit@PLT
.L18:
	nop
	leave
	.cfi_def_cfa 7, 8
	ret
	.cfi_endproc
.LFE1991:
	.size	_Z41__static_initialization_and_destruction_0ii, .-_Z41__static_initialization_and_destruction_0ii
	.type	_GLOBAL__sub_I_main, @function
_GLOBAL__sub_I_main:
.LFB1992:
	.cfi_startproc
	pushq	%rbp
	.cfi_def_cfa_offset 16
	.cfi_offset 6, -16
	movq	%rsp, %rbp
	.cfi_def_cfa_register 6
	movl	$65535, %esi
	movl	$1, %edi
	call	_Z41__static_initialization_and_destruction_0ii
	popq	%rbp
	.cfi_def_cfa 7, 8
	ret
	.cfi_endproc
.LFE1992:
	.size	_GLOBAL__sub_I_main, .-_GLOBAL__sub_I_main
	.section	.init_array,"aw"
	.align 8
	.quad	_GLOBAL__sub_I_main
	.hidden	DW.ref.__gxx_personality_v0
	.weak	DW.ref.__gxx_personality_v0
	.section	.data.rel.local.DW.ref.__gxx_personality_v0,"awG",@progbits,DW.ref.__gxx_personality_v0,comdat
	.align 8
	.type	DW.ref.__gxx_personality_v0, @object
	.size	DW.ref.__gxx_personality_v0, 8
DW.ref.__gxx_personality_v0:
	.quad	__gxx_personality_v0
	.hidden	__dso_handle
	.ident	"GCC: (Ubuntu 7.5.0-3ubuntu1~18.04) 7.5.0"
	.section	.note.GNU-stack,"",@progbits
